target datalayout = "e-m:e-p270:32:32-p271:32:32-p272:64:64-i64:64-i128:128-f80:128-n8:16:32:64-S128"
target triple = "x86_64-unknown-linux-gnu"

%struct.Chardev = type { %struct.Object, %struct.QemuMutex, ptr, ptr, ptr, i32, i32, i8, ptr, ptr, [1 x i64] }
%struct.Object = type { ptr, ptr, ptr, i32, ptr }
%struct.QemuMutex = type { %union.pthread_mutex_t, i8 }
%union.pthread_mutex_t = type { %struct.__pthread_mutex_s }
%struct.__pthread_mutex_s = type { i32, i32, i32, i32, i32, i16, i16, %struct.__pthread_internal_list }
%struct.__pthread_internal_list = type { ptr, ptr }
%struct.CharBackend = type { ptr, ptr, ptr, ptr, ptr, ptr, i32, i32 }

@replay_mode = external global i32, align 4

; Function Attrs: nounwind sspstrong uwtable
define internal i32 @test_bit(i64 noundef %nr, ptr noundef %addr) #0 {
entry:
  %nr.addr = alloca i64, align 8
  %addr.addr = alloca ptr, align 8
  store i64 %nr, ptr %nr.addr, align 8
  store ptr %addr, ptr %addr.addr, align 8
  %0 = load ptr, ptr %addr.addr, align 8
  %1 = load i64, ptr %nr.addr, align 8
  %div = udiv i64 %1, 64
  %arrayidx = getelementptr i64, ptr %0, i64 %div
  %2 = load i64, ptr %arrayidx, align 8
  %3 = load i64, ptr %nr.addr, align 8
  %and = and i64 %3, 63
  %shr = lshr i64 %2, %and
  %and1 = and i64 1, %shr
  %conv = trunc i64 %and1 to i32
  ret i32 %conv
}

; Function Attrs: nounwind sspstrong uwtable
define dso_local void @qemu_chr_be_write_impl(ptr noundef %s, ptr noundef %buf, i32 noundef %len) #0 {
entry:
  %s.addr = alloca ptr, align 8
  %buf.addr = alloca ptr, align 8
  %len.addr = alloca i32, align 4
  %be = alloca ptr, align 8
  store ptr %s, ptr %s.addr, align 8
  store ptr %buf, ptr %buf.addr, align 8
  store i32 %len, ptr %len.addr, align 4
  %0 = load ptr, ptr %s.addr, align 8
  %be1 = getelementptr inbounds %struct.Chardev, ptr %0, i32 0, i32 2
  %1 = load ptr, ptr %be1, align 8
  store ptr %1, ptr %be, align 8
  %2 = load ptr, ptr %be, align 8
  %tobool = icmp ne ptr %2, null
  br i1 %tobool, label %land.lhs.true, label %if.end

land.lhs.true:                                    ; preds = %entry
  %3 = load ptr, ptr %be, align 8
  %chr_read = getelementptr inbounds %struct.CharBackend, ptr %3, i32 0, i32 3
  %4 = load ptr, ptr %chr_read, align 8
  %tobool2 = icmp ne ptr %4, null
  br i1 %tobool2, label %if.then, label %if.end

if.then:                                          ; preds = %land.lhs.true
  %5 = load ptr, ptr %be, align 8
  %chr_read3 = getelementptr inbounds %struct.CharBackend, ptr %5, i32 0, i32 3
  %6 = load ptr, ptr %chr_read3, align 8
  %7 = load ptr, ptr %be, align 8
  %opaque = getelementptr inbounds %struct.CharBackend, ptr %7, i32 0, i32 5
  %8 = load ptr, ptr %opaque, align 8
  %9 = load ptr, ptr %buf.addr, align 8
  %10 = load i32, ptr %len.addr, align 4
  call void %6(ptr noundef %8, ptr noundef %9, i32 noundef %10)
  br label %if.end

if.end:                                           ; preds = %if.then, %land.lhs.true, %entry
  ret void
}

; Function Attrs: nounwind sspstrong uwtable
define dso_local zeroext i1 @qemu_chr_has_feature(ptr noundef %chr, i32 noundef %feature) #0 {
entry:
  %chr.addr = alloca ptr, align 8
  %feature.addr = alloca i32, align 4
  store ptr %chr, ptr %chr.addr, align 8
  store i32 %feature, ptr %feature.addr, align 4
  %0 = load i32, ptr %feature.addr, align 4
  %conv = zext i32 %0 to i64
  %1 = load ptr, ptr %chr.addr, align 8
  %features = getelementptr inbounds %struct.Chardev, ptr %1, i32 0, i32 10
  %arraydecay = getelementptr inbounds [1 x i64], ptr %features, i64 0, i64 0
  %call = call i32 @test_bit(i64 noundef %conv, ptr noundef %arraydecay)
  %tobool = icmp ne i32 %call, 0
  ret i1 %tobool
}

; Function Attrs: nounwind sspstrong uwtable
define dso_local void @qemu_chr_be_write(ptr noundef %s, ptr noundef %buf, i32 noundef %len) #0 {
entry:
  %s.addr = alloca ptr, align 8
  %buf.addr = alloca ptr, align 8
  %len.addr = alloca i32, align 4
  store ptr %s, ptr %s.addr, align 8
  store ptr %buf, ptr %buf.addr, align 8
  store i32 %len, ptr %len.addr, align 4
  %0 = load ptr, ptr %s.addr, align 8
  %call = call zeroext i1 @qemu_chr_has_feature(ptr noundef %0, i32 noundef 2)
  br i1 %call, label %if.then, label %if.else

if.then:                                          ; preds = %entry
  %1 = load i32, ptr @replay_mode, align 4
  %cmp = icmp eq i32 %1, 2
  br i1 %cmp, label %if.then1, label %if.end

if.then1:                                         ; preds = %if.then
  br label %if.end2

if.end:                                           ; preds = %if.then
  %2 = load ptr, ptr %s.addr, align 8
  %3 = load ptr, ptr %buf.addr, align 8
  %4 = load i32, ptr %len.addr, align 4
  call void @replay_chr_be_write(ptr noundef %2, ptr noundef %3, i32 noundef %4)
  br label %if.end2

if.else:                                          ; preds = %entry
  %5 = load ptr, ptr %s.addr, align 8
  %6 = load ptr, ptr %buf.addr, align 8
  %7 = load i32, ptr %len.addr, align 4
  call void @qemu_chr_be_write_impl(ptr noundef %5, ptr noundef %6, i32 noundef %7)
  br label %if.end2

if.end2:                                          ; preds = %if.else, %if.end, %if.then1
  ret void
}