; Function Attrs: nounwind sspstrong uwtable
define dso_local void @qemu_chr_be_write(ptr noundef %s, ptr noundef %buf, i32 noundef %len) local_unnamed_addr #0 {
entry:
  %features.i = getelementptr inbounds nuw i8, ptr %s, i64 144
  %0 = load i64, ptr %features.i, align 8
  %1 = and i64 %0, 4
  %tobool.i.not = icmp eq i64 %1, 0
  br i1 %tobool.i.not, label %if.else, label %if.then

if.then:                                          ; preds = %entry
  %2 = load i32, ptr @replay_mode, align 4
  %cmp = icmp eq i32 %2, 2
  br i1 %cmp, label %if.end2, label %if.end

if.end:                                           ; preds = %if.then
  tail call void @replay_chr_be_write(ptr noundef nonnull %s, ptr noundef %buf, i32 noundef %len) #13
  br label %if.end2

if.else:                                          ; preds = %entry
  %be1.i = getelementptr inbounds nuw i8, ptr %s, i64 88
  %3 = load ptr, ptr %be1.i, align 8
  %tobool.not.i = icmp eq ptr %3, null
  br i1 %tobool.not.i, label %if.end2, label %land.lhs.true.i

land.lhs.true.i:                                  ; preds = %if.else
  %chr_read.i = getelementptr inbounds nuw i8, ptr %3, i64 24
  %4 = load ptr, ptr %chr_read.i, align 8
  %tobool2.not.i = icmp eq ptr %4, null
  br i1 %tobool2.not.i, label %if.end2, label %if.then.i

if.then.i:                                        ; preds = %land.lhs.true.i
  %opaque.i = getelementptr inbounds nuw i8, ptr %3, i64 40
  %5 = load ptr, ptr %opaque.i, align 8
  tail call void %4(ptr noundef %5, ptr noundef %buf, i32 noundef %len) #13
  br label %if.end2

if.end2:                                          ; preds = %if.then.i, %land.lhs.true.i, %if.else, %if.then, %if.end
  ret void
}